target datalayout = "e-m:e-p270:32:32-p271:32:32-p272:64:64-i64:64-i128:128-f80:128-n8:16:32:64-S128"
target triple = "x86_64-pc-linux-gnu"

%"class.pbrt::Medium" = type { %"class.pbrt::TaggedPointer" }
%"class.pbrt::TaggedPointer" = type { i64 }
%"class.pbrt::Point3.8" = type { %"class.pbrt::Tuple3.9" }
%"class.pbrt::Tuple3.9" = type { float, float, float }
%"class.pbrt::LightBase" = type { i32, %"class.pbrt::Transform", %"struct.pbrt::MediumInterface" }
%"class.pbrt::Transform" = type { %"class.pbrt::SquareMatrix.10", %"class.pbrt::SquareMatrix.10" }
%"class.pbrt::SquareMatrix.10" = type { [4 x [4 x float]] }
%"struct.pbrt::MediumInterface" = type { %"class.pbrt::Medium", %"class.pbrt::Medium" }
%"class.pbrt::Spectrum" = type { %"class.pbrt::TaggedPointer.11" }
%"class.pbrt::TaggedPointer.11" = type { i64 }
%"class.pbrt::UniformInfiniteLight" = type <{ %"class.pbrt::LightBase", ptr, float, %"class.pbrt::Point3.8", float, [4 x i8] }>

@_ZN4pbrtL9numLightsE = internal thread_local global i64 0, align 8

; Function Attrs: mustprogress nounwind uwtable
define linkonce_odr dso_local void @_ZN4pbrt13TaggedPointerIJNS_17HomogeneousMediumENS_10GridMediumENS_13RGBGridMediumENS_11CloudMediumENS_13NanoVDBMediumEEEC2ERKS6_(ptr noundef nonnull align 8 dereferenceable(8) %0, ptr noundef nonnull align 8 dereferenceable(8) %1) unnamed_addr #6 comdat align 2 {
  %3 = alloca ptr, align 8
  %4 = alloca ptr, align 8
  store ptr %0, ptr %3, align 8, !tbaa !619
  store ptr %1, ptr %4, align 8, !tbaa !619
  %5 = load ptr, ptr %3, align 8
  %6 = getelementptr inbounds nuw %"class.pbrt::TaggedPointer", ptr %5, i32 0, i32 0
  store i64 0, ptr %6, align 8, !tbaa !621
  %7 = load ptr, ptr %4, align 8, !tbaa !619
  %8 = getelementptr inbounds nuw %"class.pbrt::TaggedPointer", ptr %7, i32 0, i32 0
  %9 = load i64, ptr %8, align 8, !tbaa !621
  %10 = getelementptr inbounds nuw %"class.pbrt::TaggedPointer", ptr %5, i32 0, i32 0
  store i64 %9, ptr %10, align 8, !tbaa !621
  ret void
}

; Function Attrs: inlinehint mustprogress uwtable
define linkonce_odr dso_local void @_ZN4pbrt6MediumC2ERKS0_(ptr noundef nonnull align 8 dereferenceable(8) %0, ptr noundef nonnull align 8 dereferenceable(8) %1) unnamed_addr #5 comdat align 2 {
  %3 = alloca ptr, align 8
  %4 = alloca ptr, align 8
  store ptr %0, ptr %3, align 8, !tbaa !148
  store ptr %1, ptr %4, align 8, !tbaa !148
  %5 = load ptr, ptr %3, align 8
  %6 = load ptr, ptr %4, align 8, !tbaa !148
  call void @_ZN4pbrt13TaggedPointerIJNS_17HomogeneousMediumENS_10GridMediumENS_13RGBGridMediumENS_11CloudMediumENS_13NanoVDBMediumEEEC2ERKS6_(ptr noundef nonnull align 8 dereferenceable(8) %5, ptr noundef nonnull align 8 dereferenceable(8) %6)
  ret void
}

; Function Attrs: mustprogress nounwind uwtable
define linkonce_odr dso_local void @_ZN4pbrt13TaggedPointerIJNS_17HomogeneousMediumENS_10GridMediumENS_13RGBGridMediumENS_11CloudMediumENS_13NanoVDBMediumEEEC2Ev(ptr noundef nonnull align 8 dereferenceable(8) %0) unnamed_addr #6 comdat align 2 {
  %2 = alloca ptr, align 8
  store ptr %0, ptr %2, align 8, !tbaa !619
  %3 = load ptr, ptr %2, align 8
  %4 = getelementptr inbounds nuw %"class.pbrt::TaggedPointer", ptr %3, i32 0, i32 0
  store i64 0, ptr %4, align 8, !tbaa !621
  ret void
}

; Function Attrs: mustprogress nounwind uwtable
define linkonce_odr dso_local void @_ZN4pbrt6Tuple3INS_6Point3EfEC2Ev(ptr noundef nonnull align 4 dereferenceable(12) %0) unnamed_addr #6 comdat align 2 {
  %2 = alloca ptr, align 8
  store ptr %0, ptr %2, align 8, !tbaa !116
  %3 = load ptr, ptr %2, align 8
  %4 = getelementptr inbounds nuw %"class.pbrt::Tuple3.9", ptr %3, i32 0, i32 0
  store float 0.000000e+00, ptr %4, align 4, !tbaa !118
  %5 = getelementptr inbounds nuw %"class.pbrt::Tuple3.9", ptr %3, i32 0, i32 1
  store float 0.000000e+00, ptr %5, align 4, !tbaa !119
  %6 = getelementptr inbounds nuw %"class.pbrt::Tuple3.9", ptr %3, i32 0, i32 2
  store float 0.000000e+00, ptr %6, align 4, !tbaa !120
  ret void
}

; Function Attrs: mustprogress nounwind uwtable
define linkonce_odr dso_local void @_ZN4pbrt13TaggedPointerIJNS_16ConstantSpectrumENS_22DenselySampledSpectrumENS_23PiecewiseLinearSpectrumENS_17RGBAlbedoSpectrumENS_20RGBUnboundedSpectrumENS_21RGBIlluminantSpectrumENS_17BlackbodySpectrumEEEC2ERKS8_(ptr noundef nonnull align 8 dereferenceable(8) %0, ptr noundef nonnull align 8 dereferenceable(8) %1) unnamed_addr #6 comdat align 2 {
  %3 = alloca ptr, align 8
  %4 = alloca ptr, align 8
  store ptr %0, ptr %3, align 8, !tbaa !354
  store ptr %1, ptr %4, align 8, !tbaa !354
  %5 = load ptr, ptr %3, align 8
  %6 = getelementptr inbounds nuw %"class.pbrt::TaggedPointer.11", ptr %5, i32 0, i32 0
  store i64 0, ptr %6, align 8, !tbaa !356
  %7 = load ptr, ptr %4, align 8, !tbaa !354
  %8 = getelementptr inbounds nuw %"class.pbrt::TaggedPointer.11", ptr %7, i32 0, i32 0
  %9 = load i64, ptr %8, align 8, !tbaa !356
  %10 = getelementptr inbounds nuw %"class.pbrt::TaggedPointer.11", ptr %5, i32 0, i32 0
  store i64 %9, ptr %10, align 8, !tbaa !356
  ret void
}

; Function Attrs: inlinehint mustprogress uwtable
define linkonce_odr dso_local void @_ZN4pbrt15MediumInterfaceC2ERKS0_(ptr noundef nonnull align 8 dereferenceable(16) %0, ptr noundef nonnull align 8 dereferenceable(16) %1) unnamed_addr #5 comdat align 2 {
  %3 = alloca ptr, align 8
  %4 = alloca ptr, align 8
  store ptr %0, ptr %3, align 8, !tbaa !42
  store ptr %1, ptr %4, align 8, !tbaa !42
  %5 = load ptr, ptr %3, align 8
  %6 = getelementptr inbounds nuw %"struct.pbrt::MediumInterface", ptr %5, i32 0, i32 0
  %7 = load ptr, ptr %4, align 8, !tbaa !42
  %8 = getelementptr inbounds nuw %"struct.pbrt::MediumInterface", ptr %7, i32 0, i32 0
  call void @_ZN4pbrt6MediumC2ERKS0_(ptr noundef nonnull align 8 dereferenceable(8) %6, ptr noundef nonnull align 8 dereferenceable(8) %8)
  %9 = getelementptr inbounds nuw %"struct.pbrt::MediumInterface", ptr %5, i32 0, i32 1
  %10 = load ptr, ptr %4, align 8, !tbaa !42
  %11 = getelementptr inbounds nuw %"struct.pbrt::MediumInterface", ptr %10, i32 0, i32 1
  call void @_ZN4pbrt6MediumC2ERKS0_(ptr noundef nonnull align 8 dereferenceable(8) %9, ptr noundef nonnull align 8 dereferenceable(8) %11)
  ret void
}

; Function Attrs: inlinehint mustprogress nounwind uwtable
define linkonce_odr dso_local void @_ZN4pbrt6MediumC2Ev(ptr noundef nonnull align 8 dereferenceable(8) %0) unnamed_addr #3 comdat align 2 {
  %2 = alloca ptr, align 8
  store ptr %0, ptr %2, align 8, !tbaa !148
  %3 = load ptr, ptr %2, align 8
  call void @_ZN4pbrt13TaggedPointerIJNS_17HomogeneousMediumENS_10GridMediumENS_13RGBGridMediumENS_11CloudMediumENS_13NanoVDBMediumEEEC2Ev(ptr noundef nonnull align 8 dereferenceable(8) %3) #22
  ret void
}

; Function Attrs: mustprogress nounwind uwtable
define linkonce_odr dso_local void @_ZN4pbrt6Point3IfEC2Ev(ptr noundef nonnull align 4 dereferenceable(12) %0) unnamed_addr #6 comdat align 2 {
  %2 = alloca ptr, align 8
  store ptr %0, ptr %2, align 8, !tbaa !121
  %3 = load ptr, ptr %2, align 8
  call void @_ZN4pbrt6Tuple3INS_6Point3EfEC2Ev(ptr noundef nonnull align 4 dereferenceable(12) %3) #22
  ret void
}

; Function Attrs: inlinehint mustprogress uwtable
define linkonce_odr dso_local void @_ZN4pbrt8SpectrumC2ERKS0_(ptr noundef nonnull align 8 dereferenceable(8) %0, ptr noundef nonnull align 8 dereferenceable(8) %1) unnamed_addr #5 comdat align 2 {
  %3 = alloca ptr, align 8
  %4 = alloca ptr, align 8
  store ptr %0, ptr %3, align 8, !tbaa !55
  store ptr %1, ptr %4, align 8, !tbaa !55
  %5 = load ptr, ptr %3, align 8
  %6 = load ptr, ptr %4, align 8, !tbaa !55
  call void @_ZN4pbrt13TaggedPointerIJNS_16ConstantSpectrumENS_22DenselySampledSpectrumENS_23PiecewiseLinearSpectrumENS_17RGBAlbedoSpectrumENS_20RGBUnboundedSpectrumENS_21RGBIlluminantSpectrumENS_17BlackbodySpectrumEEEC2ERKS8_(ptr noundef nonnull align 8 dereferenceable(8) %5, ptr noundef nonnull align 8 dereferenceable(8) %6)
  ret void
}

; Function Attrs: mustprogress uwtable
define dso_local void @_ZN4pbrt9LightBaseC2ENS_9LightTypeERKNS_9TransformERKNS_15MediumInterfaceE(ptr noundef nonnull align 8 dereferenceable(152) %0, i32 noundef %1, ptr noundef nonnull align 4 dereferenceable(128) %2, ptr noundef nonnull align 8 dereferenceable(16) %3) unnamed_addr #1 align 2 {
  %5 = alloca ptr, align 8
  %6 = alloca i32, align 4
  %7 = alloca ptr, align 8
  %8 = alloca ptr, align 8
  store ptr %0, ptr %5, align 8, !tbaa !38
  store i32 %1, ptr %6, align 4, !tbaa !32
  store ptr %2, ptr %7, align 8, !tbaa !40
  store ptr %3, ptr %8, align 8, !tbaa !42
  %9 = load ptr, ptr %5, align 8
  %10 = getelementptr inbounds nuw %"class.pbrt::LightBase", ptr %9, i32 0, i32 0
  %11 = load i32, ptr %6, align 4, !tbaa !32
  store i32 %11, ptr %10, align 8, !tbaa !44
  %12 = getelementptr inbounds nuw %"class.pbrt::LightBase", ptr %9, i32 0, i32 1
  %13 = load ptr, ptr %7, align 8, !tbaa !40
  call void @llvm.memcpy.p0.p0.i64(ptr align 4 %12, ptr align 4 %13, i64 128, i1 false), !tbaa.struct !52
  %14 = getelementptr inbounds nuw %"class.pbrt::LightBase", ptr %9, i32 0, i32 2
  %15 = load ptr, ptr %8, align 8, !tbaa !42
  call void @_ZN4pbrt15MediumInterfaceC2ERKS0_(ptr noundef nonnull align 8 dereferenceable(16) %14, ptr noundef nonnull align 8 dereferenceable(16) %15)
  %16 = call align 8 ptr @llvm.threadlocal.address.p0(ptr align 8 @_ZN4pbrtL9numLightsE)
  %17 = load i64, ptr %16, align 8, !tbaa !54
  %18 = add nsw i64 %17, 1
  store i64 %18, ptr %16, align 8, !tbaa !54
  ret void
}

; Function Attrs: mustprogress nounwind uwtable
define linkonce_odr dso_local void @_ZN4pbrt15MediumInterfaceC2Ev(ptr noundef nonnull align 8 dereferenceable(16) %0) unnamed_addr #6 comdat align 2 {
  %2 = alloca ptr, align 8
  store ptr %0, ptr %2, align 8, !tbaa !42
  %3 = load ptr, ptr %2, align 8
  %4 = getelementptr inbounds nuw %"struct.pbrt::MediumInterface", ptr %3, i32 0, i32 0
  call void @_ZN4pbrt6MediumC2Ev(ptr noundef nonnull align 8 dereferenceable(8) %4) #22
  %5 = getelementptr inbounds nuw %"struct.pbrt::MediumInterface", ptr %3, i32 0, i32 1
  call void @_ZN4pbrt6MediumC2Ev(ptr noundef nonnull align 8 dereferenceable(8) %5) #22
  ret void
}

; Function Attrs: mustprogress uwtable
define dso_local void @_ZN4pbrt20UniformInfiniteLightC2ERKNS_9TransformENS_8SpectrumEf(ptr noundef nonnull align 8 dereferenceable(180) %0, ptr noundef nonnull align 4 dereferenceable(128) %1, ptr noundef %2, float noundef %3) unnamed_addr #1 align 2 {
  %5 = alloca ptr, align 8
  %6 = alloca ptr, align 8
  %7 = alloca ptr, align 8
  %8 = alloca float, align 4
  %9 = alloca %"struct.pbrt::MediumInterface", align 8
  %10 = alloca %"class.pbrt::Spectrum", align 8
  store ptr %0, ptr %5, align 8, !tbaa !387
  store ptr %1, ptr %6, align 8, !tbaa !40
  store ptr %2, ptr %7, align 8, !tbaa !55
  store float %3, ptr %8, align 4, !tbaa !9
  %11 = load ptr, ptr %5, align 8
  %12 = load ptr, ptr %6, align 8, !tbaa !40
  call void @llvm.lifetime.start.p0(i64 16, ptr %9) #22
  call void @llvm.memset.p0.i64(ptr align 8 %9, i8 0, i64 16, i1 false)
  call void @_ZN4pbrt15MediumInterfaceC2Ev(ptr noundef nonnull align 8 dereferenceable(16) %9) #22
  call void @_ZN4pbrt9LightBaseC2ENS_9LightTypeERKNS_9TransformERKNS_15MediumInterfaceE(ptr noundef nonnull align 8 dereferenceable(152) %11, i32 noundef 3, ptr noundef nonnull align 4 dereferenceable(128) %12, ptr noundef nonnull align 8 dereferenceable(16) %9)
  call void @llvm.lifetime.end.p0(i64 16, ptr %9) #22
  %13 = getelementptr inbounds nuw %"class.pbrt::UniformInfiniteLight", ptr %11, i32 0, i32 1
  call void @_ZN4pbrt8SpectrumC2ERKS0_(ptr noundef nonnull align 8 dereferenceable(8) %10, ptr noundef nonnull align 8 dereferenceable(8) %2)
  %14 = call noundef ptr @_ZN4pbrt9LightBase14LookupSpectrumENS_8SpectrumE(ptr noundef %10)
  store ptr %14, ptr %13, align 8, !tbaa !389
  %15 = getelementptr inbounds nuw %"class.pbrt::UniformInfiniteLight", ptr %11, i32 0, i32 2
  %16 = load float, ptr %8, align 4, !tbaa !9
  store float %16, ptr %15, align 8, !tbaa !391
  %17 = getelementptr inbounds nuw %"class.pbrt::UniformInfiniteLight", ptr %11, i32 0, i32 3
  call void @_ZN4pbrt6Point3IfEC2Ev(ptr noundef nonnull align 4 dereferenceable(12) %17) #22
  ret void
}