; Function Attrs: mustprogress uwtable
define dso_local void @_ZN4pbrt20UniformInfiniteLightC2ERKNS_9TransformENS_8SpectrumEf(ptr noundef nonnull writeonly align 8 captures(none) dereferenceable(180) initializes((0, 132), (136, 176)) %0, ptr noundef nonnull readonly align 4 captures(none) dereferenceable(128) %1, ptr noundef readonly captures(none) %2, float noundef %3) unnamed_addr #2 align 2 {
  %5 = alloca %"class.pbrt::Spectrum", align 8
  store i32 3, ptr %0, align 8, !tbaa !22
  %6 = getelementptr inbounds nuw i8, ptr %0, i64 4
  tail call void @llvm.memcpy.p0.p0.i64(ptr noundef nonnull align 4 dereferenceable(128) %6, ptr noundef nonnull readonly align 4 dereferenceable(128) %1, i64 128, i1 false), !tbaa.struct !30
  %7 = getelementptr inbounds nuw i8, ptr %0, i64 136
  %8 = tail call align 8 ptr @llvm.threadlocal.address.p0(ptr align 8 @_ZN4pbrtL9numLightsE)
  tail call void @llvm.memset.p0.i64(ptr noundef nonnull align 8 dereferenceable(16) %7, i8 0, i64 16, i1 false)
  %9 = load i64, ptr %8, align 8, !tbaa !21
  %10 = add nsw i64 %9, 1
  store i64 %10, ptr %8, align 8, !tbaa !21
  %11 = getelementptr inbounds nuw i8, ptr %0, i64 152
  %12 = load i64, ptr %2, align 8, !tbaa !64
  store i64 %12, ptr %5, align 8, !tbaa !64
  %13 = call noundef ptr @_ZN4pbrt9LightBase14LookupSpectrumENS_8SpectrumE(ptr noundef nonnull %5)
  store ptr %13, ptr %11, align 8, !tbaa !463
  %14 = getelementptr inbounds nuw i8, ptr %0, i64 160
  store float %3, ptr %14, align 8, !tbaa !465
  %15 = getelementptr inbounds nuw i8, ptr %0, i64 164
  store float 0.000000e+00, ptr %15, align 4, !tbaa !92
  %16 = getelementptr inbounds nuw i8, ptr %0, i64 168
  store float 0.000000e+00, ptr %16, align 8, !tbaa !94
  %17 = getelementptr inbounds nuw i8, ptr %0, i64 172
  store float 0.000000e+00, ptr %17, align 4, !tbaa !95
  ret void
}